target datalayout = "e-m:e-p270:32:32-p271:32:32-p272:64:64-i64:64-i128:128-f80:128-n8:16:32:64-S128"
target triple = "x86_64-pc-linux-gnu"

%struct.ossl_param_st = type { ptr, i32, ptr, i64, i64 }

@.str = private unnamed_addr constant [35 x i8] c"../openssl/crypto/hpke/hpke_util.c\00", align 1
@.str.18 = private unnamed_addr constant [5 x i8] c"mode\00", align 1
@.str.19 = private unnamed_addr constant [5 x i8] c"salt\00", align 1
@.str.20 = private unnamed_addr constant [4 x i8] c"key\00", align 1
@.str.21 = private unnamed_addr constant [5 x i8] c"info\00", align 1
@__func__.kdf_derive = private unnamed_addr constant [11 x i8] c"kdf_derive\00", align 1

; Function Attrs: nounwind uwtable
define internal i32 @kdf_derive(ptr noundef %0, ptr noundef %1, i64 noundef %2, i32 noundef %3, ptr noundef %4, i64 noundef %5, ptr noundef %6, i64 noundef %7, ptr noundef %8, i64 noundef %9) #0 {
  %11 = alloca ptr, align 8
  %12 = alloca ptr, align 8
  %13 = alloca i64, align 8
  %14 = alloca i32, align 4
  %15 = alloca ptr, align 8
  %16 = alloca i64, align 8
  %17 = alloca ptr, align 8
  %18 = alloca i64, align 8
  %19 = alloca ptr, align 8
  %20 = alloca i64, align 8
  %21 = alloca i32, align 4
  %22 = alloca [5 x %struct.ossl_param_st], align 16
  %23 = alloca ptr, align 8
  %24 = alloca %struct.ossl_param_st, align 8
  %25 = alloca %struct.ossl_param_st, align 8
  %26 = alloca %struct.ossl_param_st, align 8
  %27 = alloca %struct.ossl_param_st, align 8
  %28 = alloca %struct.ossl_param_st, align 8
  store ptr %0, ptr %11, align 8, !tbaa !29
  store ptr %1, ptr %12, align 8, !tbaa !3
  store i64 %2, ptr %13, align 8, !tbaa !22
  store i32 %3, ptr %14, align 4, !tbaa !8
  store ptr %4, ptr %15, align 8, !tbaa !3
  store i64 %5, ptr %16, align 8, !tbaa !22
  store ptr %6, ptr %17, align 8, !tbaa !3
  store i64 %7, ptr %18, align 8, !tbaa !22
  store ptr %8, ptr %19, align 8, !tbaa !3
  store i64 %9, ptr %20, align 8, !tbaa !22
  call void @llvm.lifetime.start.p0(i64 4, ptr %21) #5
  call void @llvm.lifetime.start.p0(i64 200, ptr %22) #5
  call void @llvm.lifetime.start.p0(i64 8, ptr %23) #5
  %29 = getelementptr inbounds [5 x %struct.ossl_param_st], ptr %22, i64 0, i64 0
  store ptr %29, ptr %23, align 8, !tbaa !31
  %30 = load ptr, ptr %23, align 8, !tbaa !31
  %31 = getelementptr inbounds nuw %struct.ossl_param_st, ptr %30, i32 1
  store ptr %31, ptr %23, align 8, !tbaa !31
  call void @llvm.lifetime.start.p0(i64 40, ptr %24) #5
  call void @OSSL_PARAM_construct_int(ptr dead_on_unwind writable sret(%struct.ossl_param_st) align 8 %24, ptr noundef @.str.18, ptr noundef %14)
  call void @llvm.memcpy.p0.p0.i64(ptr align 8 %30, ptr align 8 %24, i64 40, i1 false), !tbaa.struct !33
  call void @llvm.lifetime.end.p0(i64 40, ptr %24) #5
  %32 = load ptr, ptr %15, align 8, !tbaa !3
  %33 = icmp ne ptr %32, null
  br i1 %33, label %34, label %39

34:                                               ; preds = %10
  %35 = load ptr, ptr %23, align 8, !tbaa !31
  %36 = getelementptr inbounds nuw %struct.ossl_param_st, ptr %35, i32 1
  store ptr %36, ptr %23, align 8, !tbaa !31
  call void @llvm.lifetime.start.p0(i64 40, ptr %25) #5
  %37 = load ptr, ptr %15, align 8, !tbaa !3
  %38 = load i64, ptr %16, align 8, !tbaa !22
  call void @OSSL_PARAM_construct_octet_string(ptr dead_on_unwind writable sret(%struct.ossl_param_st) align 8 %25, ptr noundef @.str.19, ptr noundef %37, i64 noundef %38)
  call void @llvm.memcpy.p0.p0.i64(ptr align 8 %35, ptr align 8 %25, i64 40, i1 false), !tbaa.struct !33
  call void @llvm.lifetime.end.p0(i64 40, ptr %25) #5
  br label %39

39:                                               ; preds = %34, %10
  %40 = load ptr, ptr %17, align 8, !tbaa !3
  %41 = icmp ne ptr %40, null
  br i1 %41, label %42, label %47

42:                                               ; preds = %39
  %43 = load ptr, ptr %23, align 8, !tbaa !31
  %44 = getelementptr inbounds nuw %struct.ossl_param_st, ptr %43, i32 1
  store ptr %44, ptr %23, align 8, !tbaa !31
  call void @llvm.lifetime.start.p0(i64 40, ptr %26) #5
  %45 = load ptr, ptr %17, align 8, !tbaa !3
  %46 = load i64, ptr %18, align 8, !tbaa !22
  call void @OSSL_PARAM_construct_octet_string(ptr dead_on_unwind writable sret(%struct.ossl_param_st) align 8 %26, ptr noundef @.str.20, ptr noundef %45, i64 noundef %46)
  call void @llvm.memcpy.p0.p0.i64(ptr align 8 %43, ptr align 8 %26, i64 40, i1 false), !tbaa.struct !33
  call void @llvm.lifetime.end.p0(i64 40, ptr %26) #5
  br label %47

47:                                               ; preds = %42, %39
  %48 = load ptr, ptr %19, align 8, !tbaa !3
  %49 = icmp ne ptr %48, null
  br i1 %49, label %50, label %55

50:                                               ; preds = %47
  %51 = load ptr, ptr %23, align 8, !tbaa !31
  %52 = getelementptr inbounds nuw %struct.ossl_param_st, ptr %51, i32 1
  store ptr %52, ptr %23, align 8, !tbaa !31
  call void @llvm.lifetime.start.p0(i64 40, ptr %27) #5
  %53 = load ptr, ptr %19, align 8, !tbaa !3
  %54 = load i64, ptr %20, align 8, !tbaa !22
  call void @OSSL_PARAM_construct_octet_string(ptr dead_on_unwind writable sret(%struct.ossl_param_st) align 8 %27, ptr noundef @.str.21, ptr noundef %53, i64 noundef %54)
  call void @llvm.memcpy.p0.p0.i64(ptr align 8 %51, ptr align 8 %27, i64 40, i1 false), !tbaa.struct !33
  call void @llvm.lifetime.end.p0(i64 40, ptr %27) #5
  br label %55

55:                                               ; preds = %50, %47
  %56 = load ptr, ptr %23, align 8, !tbaa !31
  call void @llvm.lifetime.start.p0(i64 40, ptr %28) #5
  call void @OSSL_PARAM_construct_end(ptr dead_on_unwind writable sret(%struct.ossl_param_st) align 8 %28)
  call void @llvm.memcpy.p0.p0.i64(ptr align 8 %56, ptr align 8 %28, i64 40, i1 false), !tbaa.struct !33
  call void @llvm.lifetime.end.p0(i64 40, ptr %28) #5
  %57 = load ptr, ptr %11, align 8, !tbaa !29
  %58 = load ptr, ptr %12, align 8, !tbaa !3
  %59 = load i64, ptr %13, align 8, !tbaa !22
  %60 = getelementptr inbounds [5 x %struct.ossl_param_st], ptr %22, i64 0, i64 0
  %61 = call i32 @EVP_KDF_derive(ptr noundef %57, ptr noundef %58, i64 noundef %59, ptr noundef %60)
  %62 = icmp sgt i32 %61, 0
  %63 = zext i1 %62 to i32
  store i32 %63, ptr %21, align 4, !tbaa !8
  %64 = load i32, ptr %21, align 4, !tbaa !8
  %65 = icmp ne i32 %64, 0
  br i1 %65, label %67, label %66

66:                                               ; preds = %55
  call void @ERR_new()
  call void @ERR_set_debug(ptr noundef @.str, i32 noundef 269, ptr noundef @__func__.kdf_derive)
  call void (i32, i32, ptr, ...) @ERR_set_error(i32 noundef 57, i32 noundef 164, ptr noundef null)
  br label %67

67:                                               ; preds = %66, %55
  %68 = load i32, ptr %21, align 4, !tbaa !8
  call void @llvm.lifetime.end.p0(i64 8, ptr %23) #5
  call void @llvm.lifetime.end.p0(i64 200, ptr %22) #5
  call void @llvm.lifetime.end.p0(i64 4, ptr %21) #5
  ret i32 %68
}