; Function Attrs: nounwind uwtable
define internal fastcc range(i32 0, 2) i32 @kdf_derive(ptr noundef %0, ptr noundef %1, i64 noundef %2, i32 noundef range(i32 1, 3) %3, ptr noundef %4, i64 noundef %5, ptr noundef %6, i64 noundef %7, ptr noundef %8, i64 noundef %9) unnamed_addr #0 {
  %11 = alloca i32, align 4
  %12 = alloca [5 x %struct.ossl_param_st], align 16
  %13 = alloca %struct.ossl_param_st, align 8
  %14 = alloca %struct.ossl_param_st, align 8
  %15 = alloca %struct.ossl_param_st, align 8
  %16 = alloca %struct.ossl_param_st, align 8
  store i32 %3, ptr %11, align 4, !tbaa !16
  call void @llvm.lifetime.start.p0(i64 200, ptr nonnull %12) #5
  %17 = getelementptr inbounds nuw i8, ptr %12, i64 40
  call void @OSSL_PARAM_construct_int(ptr dead_on_unwind nonnull writable sret(%struct.ossl_param_st) align 8 %12, ptr noundef nonnull @.str.18, ptr noundef nonnull %11) #5
  %.not = icmp eq ptr %4, null
  br i1 %.not, label %20, label %18

18:                                               ; preds = %10
  %19 = getelementptr inbounds nuw i8, ptr %12, i64 80
  call void @llvm.lifetime.start.p0(i64 40, ptr nonnull %13) #5
  call void @OSSL_PARAM_construct_octet_string(ptr dead_on_unwind nonnull writable sret(%struct.ossl_param_st) align 8 %13, ptr noundef nonnull @.str.19, ptr noundef nonnull %4, i64 noundef %5) #5
  call void @llvm.memcpy.p0.p0.i64(ptr noundef nonnull align 8 dereferenceable(40) %17, ptr noundef nonnull align 8 dereferenceable(40) %13, i64 40, i1 false), !tbaa.struct !24
  call void @llvm.lifetime.end.p0(i64 40, ptr nonnull %13) #5
  br label %20

20:                                               ; preds = %18, %10
  %.0 = phi ptr [ %19, %18 ], [ %17, %10 ]
  %.not21 = icmp eq ptr %6, null
  br i1 %.not21, label %23, label %21

21:                                               ; preds = %20
  %22 = getelementptr inbounds nuw i8, ptr %.0, i64 40
  call void @llvm.lifetime.start.p0(i64 40, ptr nonnull %14) #5
  call void @OSSL_PARAM_construct_octet_string(ptr dead_on_unwind nonnull writable sret(%struct.ossl_param_st) align 8 %14, ptr noundef nonnull @.str.20, ptr noundef nonnull %6, i64 noundef %7) #5
  call void @llvm.memcpy.p0.p0.i64(ptr noundef nonnull align 8 dereferenceable(40) %.0, ptr noundef nonnull align 8 dereferenceable(40) %14, i64 40, i1 false), !tbaa.struct !24
  call void @llvm.lifetime.end.p0(i64 40, ptr nonnull %14) #5
  br label %23

23:                                               ; preds = %21, %20
  %.1 = phi ptr [ %22, %21 ], [ %.0, %20 ]
  %.not22 = icmp eq ptr %8, null
  br i1 %.not22, label %26, label %24

24:                                               ; preds = %23
  %25 = getelementptr inbounds nuw i8, ptr %.1, i64 40
  call void @llvm.lifetime.start.p0(i64 40, ptr nonnull %15) #5
  call void @OSSL_PARAM_construct_octet_string(ptr dead_on_unwind nonnull writable sret(%struct.ossl_param_st) align 8 %15, ptr noundef nonnull @.str.21, ptr noundef nonnull %8, i64 noundef %9) #5
  call void @llvm.memcpy.p0.p0.i64(ptr noundef nonnull align 8 dereferenceable(40) %.1, ptr noundef nonnull align 8 dereferenceable(40) %15, i64 40, i1 false), !tbaa.struct !24
  call void @llvm.lifetime.end.p0(i64 40, ptr nonnull %15) #5
  br label %26

26:                                               ; preds = %24, %23
  %.2 = phi ptr [ %25, %24 ], [ %.1, %23 ]
  call void @llvm.lifetime.start.p0(i64 40, ptr nonnull %16) #5
  call void @OSSL_PARAM_construct_end(ptr dead_on_unwind nonnull writable sret(%struct.ossl_param_st) align 8 %16) #5
  call void @llvm.memcpy.p0.p0.i64(ptr noundef nonnull align 8 dereferenceable(40) %.2, ptr noundef nonnull align 8 dereferenceable(40) %16, i64 40, i1 false), !tbaa.struct !24
  call void @llvm.lifetime.end.p0(i64 40, ptr nonnull %16) #5
  %27 = call i32 @EVP_KDF_derive(ptr noundef %0, ptr noundef %1, i64 noundef %2, ptr noundef nonnull %12) #5
  %28 = icmp sgt i32 %27, 0
  br i1 %28, label %30, label %29

29:                                               ; preds = %26
  call void @ERR_new() #5
  call void @ERR_set_debug(ptr noundef nonnull @.str, i32 noundef 269, ptr noundef nonnull @__func__.kdf_derive) #5
  call void (i32, i32, ptr, ...) @ERR_set_error(i32 noundef 57, i32 noundef 164, ptr noundef null) #5
  br label %30

30:                                               ; preds = %29, %26
  %31 = zext i1 %28 to i32
  call void @llvm.lifetime.end.p0(i64 200, ptr nonnull %12) #5
  ret i32 %31
}